(lp0
(lp1
S'id'
p2
aS'sex'
p3
aS'age'
p4
aS'score'
p5
aa(lp6
S'001'
p7
aS'F'
p8
aS'20'
p9
aS'77'
p10
aa(lp11
S'002'
p12
ag8
aS'25'
p13
aS'90'
p14
aa(lp15
S'003'
p16
aS'M'
p17
aS'22'
p18
aS'80'
p19
aa(lp20
S'004'
p21
ag8
aS'30'
p22
aS'66'
p23
aa(lp24
S'005'
p25
ag17
aS'40'
p26
aS'60'
p27
aa(lp28
S'006'
p29
ag17
aS'29'
p30
aS'87'
p31
aa.